; Function Attrs: mustprogress nofree norecurse nosync nounwind willreturn memory(argmem: readwrite) uwtable
define hidden void @_ZN5ceres8internal14DoglegStrategy13StepIsInvalidEv(ptr noundef nonnull align 8 captures(none) dereferenceable(264) initializes((176, 177)) %0) unnamed_addr #13 align 2 {
  %2 = getelementptr inbounds nuw i8, ptr %0, i64 72
  %3 = load double, ptr %2, align 8, !tbaa !47
  %4 = getelementptr inbounds nuw i8, ptr %0, i64 48
  %5 = load double, ptr %4, align 8, !tbaa !44
  %6 = fmul double %3, %5
  store double %6, ptr %4, align 8, !tbaa !44
  %7 = getelementptr inbounds nuw i8, ptr %0, i64 176
  store i8 0, ptr %7, align 8, !tbaa !51
  ret void
}